; Function Attrs: inlinehint mustprogress nounwind optsize uwtable
define internal noundef nonnull ptr @"_ZZN8nanobind6detail11func_createILb0ELb1EZL30nanobind_init_test_ndarray_extRNS_7module_EE3$_0bJRKNS_7ndarrayIJNS_2roEEEEEJLm0EEJNS_5scopeENS_4nameENS_3argEEEEP7_objectOT1_PFT2_DpT3_ESt16integer_sequenceImJXspT4_EEEDpRKT5_ENUlPvPSE_PhNS_9rv_policyEPNS0_12cleanup_listEE_8__invokeESS_ST_SU_SV_SX_"(ptr readnone captures(none) %0, ptr noundef readonly captures(none) %1, ptr noundef readonly captures(none) %2, i32 %3, ptr noundef %4) #8 align 2 personality ptr @__gxx_personality_v0 {
  %6 = alloca %"struct.nanobind::detail::tuple", align 8
  call void @llvm.lifetime.start.p0(i64 56, ptr nonnull %6) #22
  call void @llvm.memset.p0.i64(ptr noundef nonnull align 8 dereferenceable(56) %6, i8 0, i64 56, i1 false)
  %7 = load ptr, ptr %1, align 8, !tbaa !93
  %8 = load i8, ptr %2, align 1, !tbaa !60
  %9 = call noundef zeroext i1 @_ZN8nanobind6detail11type_casterINS_7ndarrayIJNS_2roEEEEiE11from_pythonENS_6handleEhPNS0_12cleanup_listE(ptr noundef nonnull align 8 dereferenceable(56) %6, ptr %7, i8 noundef zeroext %8, ptr noundef %4) #23
  %.pre = load ptr, ptr %6, align 8, !tbaa !94
  br i1 %9, label %10, label %"_ZZN8nanobind6detail11func_createILb0ELb1EZL30nanobind_init_test_ndarray_extRNS_7module_EE3$_0bJRKNS_7ndarrayIJNS_2roEEEEEJLm0EEJNS_5scopeENS_4nameENS_3argEEEEP7_objectOT1_PFT2_DpT3_ESt16integer_sequenceImJXspT4_EEEDpRKT5_ENKUlPvPSE_PhNS_9rv_policyEPNS0_12cleanup_listEE_clESS_ST_SU_SV_SX_.exit"

10:                                               ; preds = %5
  %.not = icmp eq ptr %.pre, null
  %11 = select i1 %.not, ptr @_Py_FalseStruct, ptr @_Py_TrueStruct
  %12 = load i64, ptr %11, align 8, !tbaa !65
  %13 = add nsw i64 %12, 1
  store i64 %13, ptr %11, align 8, !tbaa !65
  br label %"_ZZN8nanobind6detail11func_createILb0ELb1EZL30nanobind_init_test_ndarray_extRNS_7module_EE3$_0bJRKNS_7ndarrayIJNS_2roEEEEEJLm0EEJNS_5scopeENS_4nameENS_3argEEEEP7_objectOT1_PFT2_DpT3_ESt16integer_sequenceImJXspT4_EEEDpRKT5_ENKUlPvPSE_PhNS_9rv_policyEPNS0_12cleanup_listEE_clESS_ST_SU_SV_SX_.exit"

"_ZZN8nanobind6detail11func_createILb0ELb1EZL30nanobind_init_test_ndarray_extRNS_7module_EE3$_0bJRKNS_7ndarrayIJNS_2roEEEEEJLm0EEJNS_5scopeENS_4nameENS_3argEEEEP7_objectOT1_PFT2_DpT3_ESt16integer_sequenceImJXspT4_EEEDpRKT5_ENKUlPvPSE_PhNS_9rv_policyEPNS0_12cleanup_listEE_clESS_ST_SU_SV_SX_.exit": ; preds = %5, %10
  %.0.i = phi ptr [ %11, %10 ], [ inttoptr (i64 1 to ptr), %5 ]
  call void @_ZN8nanobind6detail15ndarray_dec_refEPNS0_14ndarray_handleE(ptr noundef %.pre) #23
  call void @llvm.lifetime.end.p0(i64 56, ptr nonnull %6) #22
  ret ptr %.0.i
}